target datalayout = "e-m:e-p270:32:32-p271:32:32-p272:64:64-i64:64-i128:128-f80:128-n8:16:32:64-S128"
target triple = "x86_64-pc-linux-gnu"

; Function Attrs: nounwind sspstrong uwtable
define dso_local void @rb_load(i64 noundef %0, i32 noundef %1) #0 {
  %3 = alloca i64, align 8
  %4 = alloca i32, align 4
  %5 = alloca i64, align 8
  %6 = alloca ptr, align 8
  %7 = alloca ptr, align 8
  store i64 %0, ptr %3, align 8, !tbaa !12
  store i32 %1, ptr %4, align 4, !tbaa !39
  call void @llvm.lifetime.start.p0(i64 8, ptr %5) #8
  %8 = load i64, ptr %3, align 8, !tbaa !12
  %9 = call i64 @rb_get_path(i64 noundef %8)
  call void @llvm.lifetime.start.p0(i64 8, ptr %6) #8
  store ptr %3, ptr %6, align 8, !tbaa !48
  call void asm sideeffect "", "*m,~{dirflag},~{fpsr},~{flags}"(ptr elementtype(ptr) %6) #8, !srcloc !52
  %10 = load ptr, ptr %6, align 8, !tbaa !48
  store ptr %10, ptr %7, align 8, !tbaa !48
  call void @llvm.lifetime.end.p0(i64 8, ptr %6) #8
  %11 = load ptr, ptr %7, align 8, !tbaa !48
  store volatile i64 %9, ptr %11, align 8, !tbaa !12
  %12 = call i64 @rb_find_file(i64 noundef %9)
  store i64 %12, ptr %5, align 8, !tbaa !12
  %13 = load i64, ptr %5, align 8, !tbaa !12
  %14 = icmp ne i64 %13, 0
  br i1 %14, label %17, label %15

15:                                               ; preds = %2
  %16 = load i64, ptr %3, align 8, !tbaa !12
  call void @load_failed(i64 noundef %16) #31
  unreachable

17:                                               ; preds = %2
  %18 = load i64, ptr %5, align 8, !tbaa !12
  %19 = load i32, ptr %4, align 4, !tbaa !39
  %20 = icmp ne i32 %19, 0
  %21 = select i1 %20, i64 20, i64 0
  call void @rb_load_internal(i64 noundef %18, i64 noundef %21)
  call void @llvm.lifetime.end.p0(i64 8, ptr %5) #8
  ret void
}