; Function Attrs: nounwind sspstrong uwtable
define dso_local void @rb_load(i64 noundef %0, i32 noundef %1) local_unnamed_addr #0 {
  %3 = alloca i64, align 8
  %4 = alloca ptr, align 8
  store i64 %0, ptr %3, align 8, !tbaa !42
  %5 = tail call i64 @rb_get_path(i64 noundef %0) #7
  call void @llvm.lifetime.start.p0(i64 8, ptr nonnull %4) #7
  store ptr %3, ptr %4, align 8, !tbaa !49
  call void asm sideeffect "", "*m,~{dirflag},~{fpsr},~{flags}"(ptr nonnull elementtype(ptr) %4) #7, !srcloc !54
  %6 = load ptr, ptr %4, align 8, !tbaa !49
  call void @llvm.lifetime.end.p0(i64 8, ptr nonnull %4) #7
  store volatile i64 %5, ptr %6, align 8, !tbaa !42
  %7 = call i64 @rb_find_file(i64 noundef %5) #7
  %.not = icmp eq i64 %7, 0
  br i1 %.not, label %8, label %10

8:                                                ; preds = %2
  %9 = load i64, ptr %3, align 8, !tbaa !42
  call fastcc void @load_failed(i64 noundef %9) #26
  unreachable

10:                                               ; preds = %2
  %.not3 = icmp eq i32 %1, 0
  %11 = select i1 %.not3, i64 0, i64 20
  call fastcc void @rb_load_internal(i64 noundef %7, i64 noundef %11)
  ret void
}